; Function Attrs: mustprogress uwtable
define hidden void @_ZN3smt13model_checkerclEP4expr(ptr noundef nonnull readonly align 8 captures(none) dereferenceable(184) %0, ptr noundef readonly captures(none) %1) local_unnamed_addr #4 align 2 {
  %3 = getelementptr inbounds nuw i8, ptr %1, i64 4
  %4 = load i32, ptr %3, align 4
  %5 = and i32 %4, 65535
  %6 = icmp eq i32 %5, 0
  br i1 %6, label %7, label %_ZNK11ast_manager14is_model_valueEPK4expr.exit.thread

7:                                                ; preds = %2
  %8 = getelementptr inbounds nuw i8, ptr %1, i64 16
  %9 = load ptr, ptr %8, align 8, !tbaa !116
  %10 = getelementptr inbounds nuw i8, ptr %9, i64 24
  %11 = load ptr, ptr %10, align 8, !tbaa !196
  %.not.i.i.i.i = icmp eq ptr %11, null
  br i1 %.not.i.i.i.i, label %_ZNK11ast_manager14is_model_valueEPK4expr.exit.thread, label %_ZNK11ast_manager14is_model_valueEPK4expr.exit

_ZNK11ast_manager14is_model_valueEPK4expr.exit:   ; preds = %7
  %12 = load i32, ptr %11, align 8, !tbaa !197
  %13 = icmp eq i32 %12, 3
  %14 = getelementptr inbounds nuw i8, ptr %11, i64 4
  %15 = load i32, ptr %14, align 4
  %16 = icmp eq i32 %15, 0
  %17 = select i1 %13, i1 %16, i1 false
  br i1 %17, label %18, label %_ZNK11ast_manager14is_model_valueEPK4expr.exit.thread

18:                                               ; preds = %_ZNK11ast_manager14is_model_valueEPK4expr.exit
  %19 = tail call ptr @__cxa_allocate_exception(i64 1) #23
  tail call void @__cxa_throw(ptr %19, ptr nonnull @_ZTIN3smt13model_checker14is_model_valueE, ptr null) #26
  unreachable

_ZNK11ast_manager14is_model_valueEPK4expr.exit.thread: ; preds = %7, %2, %_ZNK11ast_manager14is_model_valueEPK4expr.exit
  ret void
}